; ModuleID = 'source-C-CXX/24/397.cpp'
source_filename = "source-C-CXX/24/397.cpp"
target datalayout = "e-m:e-p270:32:32-p271:32:32-p272:64:64-i64:64-f80:128-n8:16:32:64-S128"
target triple = "x86_64-pc-linux-gnu"

%"class.std::ios_base::Init" = type { i8 }
%"class.std::basic_istream" = type { i32 (...)**, i64, %"class.std::basic_ios" }
%"class.std::basic_ios" = type { %"class.std::ios_base", %"class.std::basic_ostream"*, i8, i8, %"class.std::basic_streambuf"*, %"class.std::ctype"*, %"class.std::num_put"*, %"class.std::num_get"* }
%"class.std::ios_base" = type { i32 (...)**, i64, i64, i32, i32, i32, %"struct.std::ios_base::_Callback_list"*, %"struct.std::ios_base::_Words", [8 x %"struct.std::ios_base::_Words"], i32, %"struct.std::ios_base::_Words"*, %"class.std::locale" }
%"struct.std::ios_base::_Callback_list" = type { %"struct.std::ios_base::_Callback_list"*, void (i32, %"class.std::ios_base"*, i32)*, i32, i32 }
%"struct.std::ios_base::_Words" = type { i8*, i64 }
%"class.std::locale" = type { %"class.std::locale::_Impl"* }
%"class.std::locale::_Impl" = type { i32, %"class.std::locale::facet"**, i64, %"class.std::locale::facet"**, i8** }
%"class.std::locale::facet" = type <{ i32 (...)**, i32, [4 x i8] }>
%"class.std::basic_ostream" = type { i32 (...)**, %"class.std::basic_ios" }
%"class.std::basic_streambuf" = type { i32 (...)**, i8*, i8*, i8*, i8*, i8*, i8*, %"class.std::locale" }
%"class.std::ctype" = type <{ %"class.std::locale::facet.base", [4 x i8], %struct.__locale_struct*, i8, [7 x i8], i32*, i32*, i16*, i8, [256 x i8], [256 x i8], i8, [6 x i8] }>
%"class.std::locale::facet.base" = type <{ i32 (...)**, i32 }>
%struct.__locale_struct = type { [13 x %struct.__locale_data*], i16*, i32*, i32*, [13 x i8*] }
%struct.__locale_data = type opaque
%"class.std::num_put" = type { %"class.std::locale::facet.base", [4 x i8] }
%"class.std::num_get" = type { %"class.std::locale::facet.base", [4 x i8] }

@_ZStL8__ioinit = internal global %"class.std::ios_base::Init" zeroinitializer, align 1
@__dso_handle = external hidden global i8
@_ZSt3cin = external global %"class.std::basic_istream", align 8
@_ZSt4cout = external global %"class.std::basic_ostream", align 8
@llvm.global_ctors = appending global [1 x { i32, void ()*, i8* }] [{ i32, void ()*, i8* } { i32 65535, void ()* @_GLOBAL__sub_I_397.cpp, i8* null }]

declare void @_ZNSt8ios_base4InitC1Ev(%"class.std::ios_base::Init"* nonnull align 1 dereferenceable(1)) unnamed_addr #0

; Function Attrs: nounwind
declare void @_ZNSt8ios_base4InitD1Ev(%"class.std::ios_base::Init"* nonnull align 1 dereferenceable(1)) unnamed_addr #1

; Function Attrs: nofree nounwind
declare i32 @__cxa_atexit(void (i8*)*, i8*, i8*) local_unnamed_addr #2

; Function Attrs: mustprogress norecurse sspstrong uwtable
define dso_local i32 @main() local_unnamed_addr #3 {
  %1 = alloca [500 x i32], align 16
  %2 = alloca i32, align 4
  %3 = bitcast [500 x i32]* %1 to i8*
  call void @llvm.lifetime.start.p0i8(i64 2000, i8* nonnull %3) #8
  call void @llvm.memset.p0i8.i64(i8* noundef nonnull align 16 dereferenceable(2000) %3, i8 0, i64 2000, i1 false)
  %4 = bitcast i32* %2 to i8*
  call void @llvm.lifetime.start.p0i8(i64 4, i8* nonnull %4) #8
  %5 = call nonnull align 8 dereferenceable(16) %"class.std::basic_istream"* @_ZNSirsERi(%"class.std::basic_istream"* nonnull align 8 dereferenceable(16) @_ZSt3cin, i32* nonnull align 4 dereferenceable(4) %2)
  %6 = getelementptr inbounds [500 x i32], [500 x i32]* %1, i64 0, i64 499
  store i32 1, i32* %6, align 4, !tbaa !5
  %7 = load i32, i32* %2, align 4, !tbaa !5
  %8 = getelementptr inbounds [500 x i32], [500 x i32]* %1, i64 0, i64 0
  %9 = icmp slt i32 %7, 1
  br i1 %9, label %71, label %10

10:                                               ; preds = %0
  %11 = getelementptr inbounds [500 x i32], [500 x i32]* %1, i64 0, i64 3
  %12 = getelementptr inbounds [500 x i32], [500 x i32]* %1, i64 0, i64 2
  %13 = getelementptr inbounds [500 x i32], [500 x i32]* %1, i64 0, i64 1
  %14 = getelementptr inbounds [500 x i32], [500 x i32]* %1, i64 0, i64 0
  br label %15

15:                                               ; preds = %10, %66
  %16 = phi i32 [ %69, %66 ], [ 1, %10 ]
  br label %17

17:                                               ; preds = %17, %15
  %18 = phi i64 [ 0, %15 ], [ %43, %17 ]
  %19 = sub nuw nsw i64 499, %18
  %20 = getelementptr inbounds [500 x i32], [500 x i32]* %1, i64 0, i64 %19
  %21 = getelementptr inbounds i32, i32* %20, i64 -3
  %22 = bitcast i32* %21 to <4 x i32>*
  %23 = load <4 x i32>, <4 x i32>* %22, align 16, !tbaa !5
  %24 = getelementptr inbounds i32, i32* %20, i64 -7
  %25 = bitcast i32* %24 to <4 x i32>*
  %26 = load <4 x i32>, <4 x i32>* %25, align 16, !tbaa !5
  %27 = shl nsw <4 x i32> %23, <i32 1, i32 1, i32 1, i32 1>
  %28 = shl nsw <4 x i32> %26, <i32 1, i32 1, i32 1, i32 1>
  %29 = bitcast i32* %21 to <4 x i32>*
  store <4 x i32> %27, <4 x i32>* %29, align 16, !tbaa !5
  %30 = bitcast i32* %24 to <4 x i32>*
  store <4 x i32> %28, <4 x i32>* %30, align 16, !tbaa !5
  %31 = sub nsw i64 491, %18
  %32 = getelementptr inbounds [500 x i32], [500 x i32]* %1, i64 0, i64 %31
  %33 = getelementptr inbounds i32, i32* %32, i64 -3
  %34 = bitcast i32* %33 to <4 x i32>*
  %35 = load <4 x i32>, <4 x i32>* %34, align 16, !tbaa !5
  %36 = getelementptr inbounds i32, i32* %32, i64 -7
  %37 = bitcast i32* %36 to <4 x i32>*
  %38 = load <4 x i32>, <4 x i32>* %37, align 16, !tbaa !5
  %39 = shl nsw <4 x i32> %35, <i32 1, i32 1, i32 1, i32 1>
  %40 = shl nsw <4 x i32> %38, <i32 1, i32 1, i32 1, i32 1>
  %41 = bitcast i32* %33 to <4 x i32>*
  store <4 x i32> %39, <4 x i32>* %41, align 16, !tbaa !5
  %42 = bitcast i32* %36 to <4 x i32>*
  store <4 x i32> %40, <4 x i32>* %42, align 16, !tbaa !5
  %43 = add nuw nsw i64 %18, 16
  %44 = icmp eq i64 %43, 496
  br i1 %44, label %45, label %17, !llvm.loop !9

45:                                               ; preds = %17
  %46 = load i32, i32* %11, align 4, !tbaa !5
  %47 = shl nsw i32 %46, 1
  store i32 %47, i32* %11, align 4, !tbaa !5
  %48 = load i32, i32* %12, align 8, !tbaa !5
  %49 = shl nsw i32 %48, 1
  store i32 %49, i32* %12, align 8, !tbaa !5
  %50 = load i32, i32* %13, align 4, !tbaa !5
  %51 = shl nsw i32 %50, 1
  store i32 %51, i32* %13, align 4, !tbaa !5
  %52 = load i32, i32* %14, align 16, !tbaa !5
  %53 = shl nsw i32 %52, 1
  store i32 %53, i32* %14, align 16, !tbaa !5
  %54 = load i32, i32* %6, align 4, !tbaa !5
  br label %55

55:                                               ; preds = %45, %55
  %56 = phi i32 [ %54, %45 ], [ %63, %55 ]
  %57 = phi i64 [ 499, %45 ], [ %60, %55 ]
  %58 = getelementptr inbounds [500 x i32], [500 x i32]* %1, i64 0, i64 %57
  %59 = sdiv i32 %56, 10
  %60 = add nsw i64 %57, -1
  %61 = getelementptr inbounds [500 x i32], [500 x i32]* %1, i64 0, i64 %60
  %62 = load i32, i32* %61, align 4, !tbaa !5
  %63 = add nsw i32 %62, %59
  store i32 %63, i32* %61, align 4, !tbaa !5
  %64 = srem i32 %56, 10
  store i32 %64, i32* %58, align 4, !tbaa !5
  %65 = icmp ugt i64 %57, 1
  br i1 %65, label %55, label %66, !llvm.loop !12

66:                                               ; preds = %55
  %67 = load i32, i32* %8, align 16, !tbaa !5
  %68 = srem i32 %67, 10
  store i32 %68, i32* %8, align 16, !tbaa !5
  %69 = add nuw i32 %16, 1
  %70 = icmp eq i32 %16, %7
  br i1 %70, label %71, label %15, !llvm.loop !13

71:                                               ; preds = %66, %0
  br label %72

72:                                               ; preds = %71, %82
  %73 = phi i64 [ %84, %82 ], [ 0, %71 ]
  %74 = phi i32 [ %83, %82 ], [ 0, %71 ]
  %75 = icmp eq i32 %74, 0
  %76 = getelementptr inbounds [500 x i32], [500 x i32]* %1, i64 0, i64 %73
  %77 = load i32, i32* %76, align 4, !tbaa !5
  %78 = icmp eq i32 %77, 0
  %79 = select i1 %75, i1 %78, i1 false
  br i1 %79, label %82, label %80

80:                                               ; preds = %72
  %81 = call nonnull align 8 dereferenceable(8) %"class.std::basic_ostream"* @_ZNSolsEi(%"class.std::basic_ostream"* nonnull align 8 dereferenceable(8) @_ZSt4cout, i32 %77)
  br label %82

82:                                               ; preds = %72, %80
  %83 = phi i32 [ 1, %80 ], [ 0, %72 ]
  %84 = add nuw nsw i64 %73, 1
  %85 = icmp eq i64 %84, 500
  br i1 %85, label %86, label %72, !llvm.loop !14

86:                                               ; preds = %82
  %87 = load i8*, i8** bitcast (%"class.std::basic_ostream"* @_ZSt4cout to i8**), align 8, !tbaa !15
  %88 = getelementptr i8, i8* %87, i64 -24
  %89 = bitcast i8* %88 to i64*
  %90 = load i64, i64* %89, align 8
  %91 = add nsw i64 %90, 240
  %92 = getelementptr inbounds i8, i8* bitcast (%"class.std::basic_ostream"* @_ZSt4cout to i8*), i64 %91
  %93 = bitcast i8* %92 to %"class.std::ctype"**
  %94 = load %"class.std::ctype"*, %"class.std::ctype"** %93, align 8, !tbaa !17
  %95 = icmp eq %"class.std::ctype"* %94, null
  br i1 %95, label %96, label %97

96:                                               ; preds = %86
  call void @_ZSt16__throw_bad_castv() #9
  unreachable

97:                                               ; preds = %86
  %98 = getelementptr inbounds %"class.std::ctype", %"class.std::ctype"* %94, i64 0, i32 8
  %99 = load i8, i8* %98, align 8, !tbaa !21
  %100 = icmp eq i8 %99, 0
  br i1 %100, label %104, label %101

101:                                              ; preds = %97
  %102 = getelementptr inbounds %"class.std::ctype", %"class.std::ctype"* %94, i64 0, i32 9, i64 10
  %103 = load i8, i8* %102, align 1, !tbaa !23
  br label %110

104:                                              ; preds = %97
  call void @_ZNKSt5ctypeIcE13_M_widen_initEv(%"class.std::ctype"* nonnull align 8 dereferenceable(570) %94)
  %105 = bitcast %"class.std::ctype"* %94 to i8 (%"class.std::ctype"*, i8)***
  %106 = load i8 (%"class.std::ctype"*, i8)**, i8 (%"class.std::ctype"*, i8)*** %105, align 8, !tbaa !15
  %107 = getelementptr inbounds i8 (%"class.std::ctype"*, i8)*, i8 (%"class.std::ctype"*, i8)** %106, i64 6
  %108 = load i8 (%"class.std::ctype"*, i8)*, i8 (%"class.std::ctype"*, i8)** %107, align 8
  %109 = call signext i8 %108(%"class.std::ctype"* nonnull align 8 dereferenceable(570) %94, i8 signext 10)
  br label %110

110:                                              ; preds = %101, %104
  %111 = phi i8 [ %103, %101 ], [ %109, %104 ]
  %112 = call nonnull align 8 dereferenceable(8) %"class.std::basic_ostream"* @_ZNSo3putEc(%"class.std::basic_ostream"* nonnull align 8 dereferenceable(8) @_ZSt4cout, i8 signext %111)
  %113 = call nonnull align 8 dereferenceable(8) %"class.std::basic_ostream"* @_ZNSo5flushEv(%"class.std::basic_ostream"* nonnull align 8 dereferenceable(8) %112)
  call void @llvm.lifetime.end.p0i8(i64 4, i8* nonnull %4) #8
  call void @llvm.lifetime.end.p0i8(i64 2000, i8* nonnull %3) #8
  ret i32 0
}

; Function Attrs: argmemonly mustprogress nofree nosync nounwind willreturn
declare void @llvm.lifetime.start.p0i8(i64 immarg, i8* nocapture) #4

; Function Attrs: argmemonly mustprogress nofree nounwind willreturn writeonly
declare void @llvm.memset.p0i8.i64(i8* nocapture writeonly, i8, i64, i1 immarg) #5

declare nonnull align 8 dereferenceable(16) %"class.std::basic_istream"* @_ZNSirsERi(%"class.std::basic_istream"* nonnull align 8 dereferenceable(16), i32* nonnull align 4 dereferenceable(4)) local_unnamed_addr #0

declare nonnull align 8 dereferenceable(8) %"class.std::basic_ostream"* @_ZNSolsEi(%"class.std::basic_ostream"* nonnull align 8 dereferenceable(8), i32) local_unnamed_addr #0

; Function Attrs: argmemonly mustprogress nofree nosync nounwind willreturn
declare void @llvm.lifetime.end.p0i8(i64 immarg, i8* nocapture) #4

declare nonnull align 8 dereferenceable(8) %"class.std::basic_ostream"* @_ZNSo3putEc(%"class.std::basic_ostream"* nonnull align 8 dereferenceable(8), i8 signext) local_unnamed_addr #0

declare nonnull align 8 dereferenceable(8) %"class.std::basic_ostream"* @_ZNSo5flushEv(%"class.std::basic_ostream"* nonnull align 8 dereferenceable(8)) local_unnamed_addr #0

; Function Attrs: noreturn
declare void @_ZSt16__throw_bad_castv() local_unnamed_addr #6

declare void @_ZNKSt5ctypeIcE13_M_widen_initEv(%"class.std::ctype"* nonnull align 8 dereferenceable(570)) local_unnamed_addr #0

; Function Attrs: sspstrong uwtable
define internal void @_GLOBAL__sub_I_397.cpp() #7 section ".text.startup" {
  tail call void @_ZNSt8ios_base4InitC1Ev(%"class.std::ios_base::Init"* nonnull align 1 dereferenceable(1) @_ZStL8__ioinit)
  %1 = tail call i32 @__cxa_atexit(void (i8*)* bitcast (void (%"class.std::ios_base::Init"*)* @_ZNSt8ios_base4InitD1Ev to void (i8*)*), i8* getelementptr inbounds (%"class.std::ios_base::Init", %"class.std::ios_base::Init"* @_ZStL8__ioinit, i64 0, i32 0), i8* nonnull @__dso_handle) #8
  ret void
}


!llvm.module.flags = !{!0, !1, !2, !3}
!llvm.ident = !{!4}

!0 = !{i32 1, !"wchar_size", i32 4}
!1 = !{i32 7, !"PIC Level", i32 2}
!2 = !{i32 7, !"PIE Level", i32 2}
!3 = !{i32 7, !"uwtable", i32 1}
!4 = !{!"clang version 13.0.0"}
!5 = !{!6, !6, i64 0}
!6 = !{!"int", !7, i64 0}
!7 = !{!"omnipotent char", !8, i64 0}
!8 = !{!"Simple C++ TBAA"}
!9 = distinct !{!9, !10, !11}
!10 = !{!"llvm.loop.mustprogress"}
!11 = !{!"llvm.loop.isvectorized", i32 1}
!12 = distinct !{!12, !10}
!13 = distinct !{!13, !10}
!14 = distinct !{!14, !10}
!15 = !{!16, !16, i64 0}
!16 = !{!"vtable pointer", !8, i64 0}
!17 = !{!18, !19, i64 240}
!18 = !{!"_ZTSSt9basic_iosIcSt11char_traitsIcEE", !19, i64 216, !7, i64 224, !20, i64 225, !19, i64 232, !19, i64 240, !19, i64 248, !19, i64 256}
!19 = !{!"any pointer", !7, i64 0}
!20 = !{!"bool", !7, i64 0}
!21 = !{!22, !7, i64 56}
!22 = !{!"_ZTSSt5ctypeIcE", !19, i64 16, !20, i64 24, !19, i64 32, !19, i64 40, !19, i64 48, !7, i64 56, !7, i64 57, !7, i64 313, !7, i64 569}
!23 = !{!7, !7, i64 0}
